target datalayout = "e-m:e-p270:32:32-p271:32:32-p272:64:64-i64:64-i128:128-f80:128-n8:16:32:64-S128"
target triple = "x86_64-pc-linux-gnu"

%class.Sample_TileMesh = type <{ %class.Sample, i8, i8, [2 x i8], float, ptr, ptr, ptr, ptr, ptr, ptr, %struct.rcConfig, i32, i32, i32, float, i32, [3 x float], [3 x float], float, float, i32, [4 x i8] }>
%class.Sample = type { ptr, ptr, ptr, ptr, ptr, i8, float, float, float, float, float, float, float, float, float, float, float, float, float, i32, i8, i8, i8, ptr, [9 x ptr], ptr, %class.SampleDebugDraw }
%class.SampleDebugDraw = type { %class.DebugDrawGL }
%class.DebugDrawGL = type { %struct.duDebugDraw }
%struct.duDebugDraw = type { ptr }
%struct.rcConfig = type { i32, i32, i32, i32, float, float, [3 x float], [3 x float], float, i32, i32, i32, i32, float, i32, i32, i32, float, float }
%class.InputGeom = type { ptr, ptr, [3 x float], [3 x float], %struct.BuildSettings, i8, [1536 x float], [256 x float], [256 x i8], [256 x i8], [256 x i16], [256 x i32], i32, [256 x %struct.ConvexVolume], i32 }
%struct.BuildSettings = type { float, float, float, float, float, float, float, float, float, float, float, float, float, i32, [3 x float], [3 x float], float }
%struct.ConvexVolume = type { [36 x float], float, float, i32, i32 }
%class.rcContext = type <{ ptr, i8, i8, [6 x i8] }>

@.str.44 = private unnamed_addr constant [20 x i8] c"Build Tile (%d,%d):\00", align 1

; Function Attrs: mustprogress nounwind uwtable
define linkonce_odr dso_local noundef zeroext i1 @_Z14dtStatusFailedj(i32 noundef %0) #0 comdat {
  %2 = alloca i32, align 4
  store i32 %0, ptr %2, align 4
  %3 = load i32, ptr %2, align 4
  %4 = and i32 %3, -2147483648
  %5 = icmp ne i32 %4, 0
  ret i1 %5
}

; Function Attrs: mustprogress uwtable
define linkonce_odr dso_local void @_ZN9rcContext8resetLogEv(ptr noundef nonnull align 8 dereferenceable(10) %0) #3 comdat align 2 {
  %2 = alloca ptr, align 8
  store ptr %0, ptr %2, align 8
  %3 = load ptr, ptr %2, align 8
  %4 = getelementptr inbounds %class.rcContext, ptr %3, i32 0, i32 1
  %5 = load i8, ptr %4, align 8
  %6 = trunc i8 %5 to i1
  br i1 %6, label %7, label %11

7:                                                ; preds = %1
  %8 = load ptr, ptr %3, align 8
  %9 = getelementptr inbounds ptr, ptr %8, i64 2
  %10 = load ptr, ptr %9, align 8
  call void %10(ptr noundef nonnull align 8 dereferenceable(10) %3)
  br label %11

11:                                               ; preds = %7, %1
  ret void
}

; Function Attrs: mustprogress nounwind uwtable
define linkonce_odr dso_local noundef i32 @_Z6duRGBAiiii(i32 noundef %0, i32 noundef %1, i32 noundef %2, i32 noundef %3) #0 comdat {
  %5 = alloca i32, align 4
  %6 = alloca i32, align 4
  %7 = alloca i32, align 4
  %8 = alloca i32, align 4
  store i32 %0, ptr %5, align 4
  store i32 %1, ptr %6, align 4
  store i32 %2, ptr %7, align 4
  store i32 %3, ptr %8, align 4
  %9 = load i32, ptr %5, align 4
  %10 = load i32, ptr %6, align 4
  %11 = shl i32 %10, 8
  %12 = or i32 %9, %11
  %13 = load i32, ptr %7, align 4
  %14 = shl i32 %13, 16
  %15 = or i32 %12, %14
  %16 = load i32, ptr %8, align 4
  %17 = shl i32 %16, 24
  %18 = or i32 %15, %17
  ret i32 %18
}

; Function Attrs: mustprogress nounwind uwtable
define linkonce_odr dso_local noundef ptr @_ZNK9InputGeom19getNavMeshBoundsMaxEv(ptr noundef nonnull align 8 dereferenceable(50312) %0) #0 comdat align 2 {
  %2 = alloca ptr, align 8
  store ptr %0, ptr %2, align 8
  %3 = load ptr, ptr %2, align 8
  %4 = getelementptr inbounds %class.InputGeom, ptr %3, i32 0, i32 5
  %5 = load i8, ptr %4, align 4
  %6 = trunc i8 %5 to i1
  br i1 %6, label %7, label %10

7:                                                ; preds = %1
  %8 = getelementptr inbounds %class.InputGeom, ptr %3, i32 0, i32 4
  %9 = getelementptr inbounds %struct.BuildSettings, ptr %8, i32 0, i32 15
  br label %12

10:                                               ; preds = %1
  %11 = getelementptr inbounds %class.InputGeom, ptr %3, i32 0, i32 3
  br label %12

12:                                               ; preds = %10, %7
  %13 = phi ptr [ %9, %7 ], [ %11, %10 ]
  %14 = getelementptr inbounds [3 x float], ptr %13, i64 0, i64 0
  ret ptr %14
}

; Function Attrs: mustprogress nounwind uwtable
define linkonce_odr dso_local noundef ptr @_ZNK9InputGeom19getNavMeshBoundsMinEv(ptr noundef nonnull align 8 dereferenceable(50312) %0) #0 comdat align 2 {
  %2 = alloca ptr, align 8
  store ptr %0, ptr %2, align 8
  %3 = load ptr, ptr %2, align 8
  %4 = getelementptr inbounds %class.InputGeom, ptr %3, i32 0, i32 5
  %5 = load i8, ptr %4, align 4
  %6 = trunc i8 %5 to i1
  br i1 %6, label %7, label %10

7:                                                ; preds = %1
  %8 = getelementptr inbounds %class.InputGeom, ptr %3, i32 0, i32 4
  %9 = getelementptr inbounds %struct.BuildSettings, ptr %8, i32 0, i32 14
  br label %12

10:                                               ; preds = %1
  %11 = getelementptr inbounds %class.InputGeom, ptr %3, i32 0, i32 2
  br label %12

12:                                               ; preds = %10, %7
  %13 = phi ptr [ %9, %7 ], [ %11, %10 ]
  %14 = getelementptr inbounds [3 x float], ptr %13, i64 0, i64 0
  ret ptr %14
}

; Function Attrs: mustprogress uwtable
define dso_local void @_ZN15Sample_TileMesh9buildTileEPKf(ptr noundef nonnull align 8 dereferenceable(404) %0, ptr noundef %1) #3 align 2 {
  %3 = alloca ptr, align 8
  %4 = alloca ptr, align 8
  %5 = alloca ptr, align 8
  %6 = alloca ptr, align 8
  %7 = alloca float, align 4
  %8 = alloca i32, align 4
  %9 = alloca i32, align 4
  %10 = alloca i32, align 4
  %11 = alloca ptr, align 8
  %12 = alloca i32, align 4
  store ptr %0, ptr %3, align 8
  store ptr %1, ptr %4, align 8
  %13 = load ptr, ptr %3, align 8
  %14 = getelementptr inbounds %class.Sample, ptr %13, i32 0, i32 1
  %15 = load ptr, ptr %14, align 8
  %16 = icmp ne ptr %15, null
  br i1 %16, label %18, label %17

17:                                               ; preds = %2
  br label %140

18:                                               ; preds = %2
  %19 = getelementptr inbounds %class.Sample, ptr %13, i32 0, i32 2
  %20 = load ptr, ptr %19, align 8
  %21 = icmp ne ptr %20, null
  br i1 %21, label %23, label %22

22:                                               ; preds = %18
  br label %140

23:                                               ; preds = %18
  %24 = getelementptr inbounds %class.Sample, ptr %13, i32 0, i32 1
  %25 = load ptr, ptr %24, align 8
  %26 = call noundef ptr @_ZNK9InputGeom19getNavMeshBoundsMinEv(ptr noundef nonnull align 8 dereferenceable(50312) %25)
  store ptr %26, ptr %5, align 8
  %27 = getelementptr inbounds %class.Sample, ptr %13, i32 0, i32 1
  %28 = load ptr, ptr %27, align 8
  %29 = call noundef ptr @_ZNK9InputGeom19getNavMeshBoundsMaxEv(ptr noundef nonnull align 8 dereferenceable(50312) %28)
  store ptr %29, ptr %6, align 8
  %30 = getelementptr inbounds %class.Sample_TileMesh, ptr %13, i32 0, i32 15
  %31 = load float, ptr %30, align 8
  %32 = getelementptr inbounds %class.Sample, ptr %13, i32 0, i32 6
  %33 = load float, ptr %32, align 4
  %34 = fmul float %31, %33
  store float %34, ptr %7, align 4
  %35 = load ptr, ptr %4, align 8
  %36 = getelementptr inbounds float, ptr %35, i64 0
  %37 = load float, ptr %36, align 4
  %38 = load ptr, ptr %5, align 8
  %39 = getelementptr inbounds float, ptr %38, i64 0
  %40 = load float, ptr %39, align 4
  %41 = fsub float %37, %40
  %42 = load float, ptr %7, align 4
  %43 = fdiv float %41, %42
  %44 = fptosi float %43 to i32
  store i32 %44, ptr %8, align 4
  %45 = load ptr, ptr %4, align 8
  %46 = getelementptr inbounds float, ptr %45, i64 2
  %47 = load float, ptr %46, align 4
  %48 = load ptr, ptr %5, align 8
  %49 = getelementptr inbounds float, ptr %48, i64 2
  %50 = load float, ptr %49, align 4
  %51 = fsub float %47, %50
  %52 = load float, ptr %7, align 4
  %53 = fdiv float %51, %52
  %54 = fptosi float %53 to i32
  store i32 %54, ptr %9, align 4
  %55 = load ptr, ptr %5, align 8
  %56 = getelementptr inbounds float, ptr %55, i64 0
  %57 = load float, ptr %56, align 4
  %58 = load i32, ptr %8, align 4
  %59 = sitofp i32 %58 to float
  %60 = load float, ptr %7, align 4
  %61 = call float @llvm.fmuladd.f32(float %59, float %60, float %57)
  %62 = getelementptr inbounds %class.Sample_TileMesh, ptr %13, i32 0, i32 17
  %63 = getelementptr inbounds [3 x float], ptr %62, i64 0, i64 0
  store float %61, ptr %63, align 8
  %64 = load ptr, ptr %5, align 8
  %65 = getelementptr inbounds float, ptr %64, i64 1
  %66 = load float, ptr %65, align 4
  %67 = getelementptr inbounds %class.Sample_TileMesh, ptr %13, i32 0, i32 17
  %68 = getelementptr inbounds [3 x float], ptr %67, i64 0, i64 1
  store float %66, ptr %68, align 4
  %69 = load ptr, ptr %5, align 8
  %70 = getelementptr inbounds float, ptr %69, i64 2
  %71 = load float, ptr %70, align 4
  %72 = load i32, ptr %9, align 4
  %73 = sitofp i32 %72 to float
  %74 = load float, ptr %7, align 4
  %75 = call float @llvm.fmuladd.f32(float %73, float %74, float %71)
  %76 = getelementptr inbounds %class.Sample_TileMesh, ptr %13, i32 0, i32 17
  %77 = getelementptr inbounds [3 x float], ptr %76, i64 0, i64 2
  store float %75, ptr %77, align 8
  %78 = load ptr, ptr %5, align 8
  %79 = getelementptr inbounds float, ptr %78, i64 0
  %80 = load float, ptr %79, align 4
  %81 = load i32, ptr %8, align 4
  %82 = add nsw i32 %81, 1
  %83 = sitofp i32 %82 to float
  %84 = load float, ptr %7, align 4
  %85 = call float @llvm.fmuladd.f32(float %83, float %84, float %80)
  %86 = getelementptr inbounds %class.Sample_TileMesh, ptr %13, i32 0, i32 18
  %87 = getelementptr inbounds [3 x float], ptr %86, i64 0, i64 0
  store float %85, ptr %87, align 4
  %88 = load ptr, ptr %6, align 8
  %89 = getelementptr inbounds float, ptr %88, i64 1
  %90 = load float, ptr %89, align 4
  %91 = getelementptr inbounds %class.Sample_TileMesh, ptr %13, i32 0, i32 18
  %92 = getelementptr inbounds [3 x float], ptr %91, i64 0, i64 1
  store float %90, ptr %92, align 4
  %93 = load ptr, ptr %5, align 8
  %94 = getelementptr inbounds float, ptr %93, i64 2
  %95 = load float, ptr %94, align 4
  %96 = load i32, ptr %9, align 4
  %97 = add nsw i32 %96, 1
  %98 = sitofp i32 %97 to float
  %99 = load float, ptr %7, align 4
  %100 = call float @llvm.fmuladd.f32(float %98, float %99, float %95)
  %101 = getelementptr inbounds %class.Sample_TileMesh, ptr %13, i32 0, i32 18
  %102 = getelementptr inbounds [3 x float], ptr %101, i64 0, i64 2
  store float %100, ptr %102, align 4
  %103 = call noundef i32 @_Z6duRGBAiiii(i32 noundef 255, i32 noundef 255, i32 noundef 255, i32 noundef 64)
  %104 = getelementptr inbounds %class.Sample_TileMesh, ptr %13, i32 0, i32 16
  store i32 %103, ptr %104, align 4
  %105 = getelementptr inbounds %class.Sample, ptr %13, i32 0, i32 25
  %106 = load ptr, ptr %105, align 8
  call void @_ZN9rcContext8resetLogEv(ptr noundef nonnull align 8 dereferenceable(10) %106)
  store i32 0, ptr %10, align 4
  %107 = load i32, ptr %8, align 4
  %108 = load i32, ptr %9, align 4
  %109 = getelementptr inbounds %class.Sample_TileMesh, ptr %13, i32 0, i32 17
  %110 = getelementptr inbounds [3 x float], ptr %109, i64 0, i64 0
  %111 = getelementptr inbounds %class.Sample_TileMesh, ptr %13, i32 0, i32 18
  %112 = getelementptr inbounds [3 x float], ptr %111, i64 0, i64 0
  %113 = call noundef ptr @_ZN15Sample_TileMesh13buildTileMeshEiiPKfS1_Ri(ptr noundef nonnull align 8 dereferenceable(404) %13, i32 noundef %107, i32 noundef %108, ptr noundef %110, ptr noundef %112, ptr noundef nonnull align 4 dereferenceable(4) %10)
  store ptr %113, ptr %11, align 8
  %114 = getelementptr inbounds %class.Sample, ptr %13, i32 0, i32 2
  %115 = load ptr, ptr %114, align 8
  %116 = getelementptr inbounds %class.Sample, ptr %13, i32 0, i32 2
  %117 = load ptr, ptr %116, align 8
  %118 = load i32, ptr %8, align 4
  %119 = load i32, ptr %9, align 4
  %120 = call noundef i32 @_ZNK9dtNavMesh12getTileRefAtEiii(ptr noundef nonnull align 8 dereferenceable(100) %117, i32 noundef %118, i32 noundef %119, i32 noundef 0)
  %121 = call noundef i32 @_ZN9dtNavMesh10removeTileEjPPhPi(ptr noundef nonnull align 8 dereferenceable(100) %115, i32 noundef %120, ptr noundef null, ptr noundef null)
  %122 = load ptr, ptr %11, align 8
  %123 = icmp ne ptr %122, null
  br i1 %123, label %124, label %135

124:                                              ; preds = %23
  %125 = getelementptr inbounds %class.Sample, ptr %13, i32 0, i32 2
  %126 = load ptr, ptr %125, align 8
  %127 = load ptr, ptr %11, align 8
  %128 = load i32, ptr %10, align 4
  %129 = call noundef i32 @_ZN9dtNavMesh7addTileEPhiijPj(ptr noundef nonnull align 8 dereferenceable(100) %126, ptr noundef %127, i32 noundef %128, i32 noundef 1, i32 noundef 0, ptr noundef null)
  store i32 %129, ptr %12, align 4
  %130 = load i32, ptr %12, align 4
  %131 = call noundef zeroext i1 @_Z14dtStatusFailedj(i32 noundef %130)
  br i1 %131, label %132, label %134

132:                                              ; preds = %124
  %133 = load ptr, ptr %11, align 8
  call void @_Z6dtFreePv(ptr noundef %133)
  br label %134

134:                                              ; preds = %132, %124
  br label %135

135:                                              ; preds = %134, %23
  %136 = getelementptr inbounds %class.Sample, ptr %13, i32 0, i32 25
  %137 = load ptr, ptr %136, align 8
  %138 = load i32, ptr %8, align 4
  %139 = load i32, ptr %9, align 4
  call void (ptr, ptr, ...) @_ZN12BuildContext7dumpLogEPKcz(ptr noundef nonnull align 8 dereferenceable(16472) %137, ptr noundef @.str.44, i32 noundef %138, i32 noundef %139)
  br label %140

140:                                              ; preds = %135, %22, %17
  ret void
}