; Function Attrs: mustprogress uwtable
define dso_local void @_ZN15Sample_TileMesh9buildTileEPKf(ptr noundef nonnull align 8 dereferenceable(404) %0, ptr nocapture noundef readonly %1) local_unnamed_addr #3 align 2 {
  %3 = alloca i32, align 4
  %4 = getelementptr inbounds i8, ptr %0, i64 8
  %5 = load ptr, ptr %4, align 8
  %.not = icmp eq ptr %5, null
  br i1 %.not, label %77, label %6

6:                                                ; preds = %2
  %7 = getelementptr inbounds i8, ptr %0, i64 16
  %8 = load ptr, ptr %7, align 8
  %.not31 = icmp eq ptr %8, null
  br i1 %.not31, label %77, label %9

9:                                                ; preds = %6
  %10 = getelementptr inbounds i8, ptr %5, i64 124
  %11 = load i8, ptr %10, align 4
  %12 = and i8 %11, 1
  %.not.i = icmp eq i8 %12, 0
  %.v.i = select i1 %.not.i, i64 16, i64 96
  %13 = getelementptr inbounds i8, ptr %5, i64 %.v.i
  %.v.i34 = select i1 %.not.i, i64 28, i64 108
  %14 = getelementptr inbounds i8, ptr %5, i64 %.v.i34
  %15 = getelementptr inbounds i8, ptr %0, i64 360
  %16 = load float, ptr %15, align 8
  %17 = getelementptr inbounds i8, ptr %0, i64 44
  %18 = load float, ptr %17, align 4
  %19 = fmul float %16, %18
  %20 = load float, ptr %1, align 4
  %21 = load float, ptr %13, align 4
  %22 = fsub float %20, %21
  %23 = fdiv float %22, %19
  %24 = fptosi float %23 to i32
  %25 = getelementptr inbounds i8, ptr %1, i64 8
  %26 = load float, ptr %25, align 4
  %27 = getelementptr inbounds i8, ptr %13, i64 8
  %28 = load float, ptr %27, align 4
  %29 = fsub float %26, %28
  %30 = fdiv float %29, %19
  %31 = fptosi float %30 to i32
  %32 = sitofp i32 %24 to float
  %33 = tail call float @llvm.fmuladd.f32(float %32, float %19, float %21)
  %34 = getelementptr inbounds i8, ptr %0, i64 368
  store float %33, ptr %34, align 8
  %35 = getelementptr inbounds i8, ptr %13, i64 4
  %36 = load float, ptr %35, align 4
  %37 = getelementptr inbounds i8, ptr %0, i64 372
  store float %36, ptr %37, align 4
  %38 = load float, ptr %27, align 4
  %39 = sitofp i32 %31 to float
  %40 = tail call float @llvm.fmuladd.f32(float %39, float %19, float %38)
  %41 = getelementptr inbounds i8, ptr %0, i64 376
  store float %40, ptr %41, align 8
  %42 = load float, ptr %13, align 4
  %43 = add nsw i32 %24, 1
  %44 = sitofp i32 %43 to float
  %45 = tail call float @llvm.fmuladd.f32(float %44, float %19, float %42)
  %46 = getelementptr inbounds i8, ptr %0, i64 380
  store float %45, ptr %46, align 4
  %47 = getelementptr inbounds i8, ptr %14, i64 4
  %48 = load float, ptr %47, align 4
  %49 = getelementptr inbounds i8, ptr %0, i64 384
  store float %48, ptr %49, align 8
  %50 = load float, ptr %27, align 4
  %51 = add nsw i32 %31, 1
  %52 = sitofp i32 %51 to float
  %53 = tail call float @llvm.fmuladd.f32(float %52, float %19, float %50)
  %54 = getelementptr inbounds i8, ptr %0, i64 388
  store float %53, ptr %54, align 4
  %55 = getelementptr inbounds i8, ptr %0, i64 364
  store i32 1090519039, ptr %55, align 4
  %56 = getelementptr inbounds i8, ptr %0, i64 184
  %57 = load ptr, ptr %56, align 8
  %58 = getelementptr inbounds i8, ptr %57, i64 8
  %59 = load i8, ptr %58, align 8
  %60 = and i8 %59, 1
  %.not.i35 = icmp eq i8 %60, 0
  br i1 %.not.i35, label %_ZN9rcContext8resetLogEv.exit, label %61

61:                                               ; preds = %9
  %62 = load ptr, ptr %57, align 8
  %63 = getelementptr inbounds i8, ptr %62, i64 16
  %64 = load ptr, ptr %63, align 8
  tail call void %64(ptr noundef nonnull align 8 dereferenceable(10) %57)
  br label %_ZN9rcContext8resetLogEv.exit

_ZN9rcContext8resetLogEv.exit:                    ; preds = %9, %61
  store i32 0, ptr %3, align 4
  %65 = call noundef ptr @_ZN15Sample_TileMesh13buildTileMeshEiiPKfS1_Ri(ptr noundef nonnull align 8 dereferenceable(404) %0, i32 noundef %24, i32 noundef %31, ptr noundef nonnull %34, ptr noundef nonnull %46, ptr noundef nonnull align 4 dereferenceable(4) %3)
  %66 = load ptr, ptr %7, align 8
  %67 = tail call noundef i32 @_ZNK9dtNavMesh12getTileRefAtEiii(ptr noundef nonnull align 8 dereferenceable(100) %66, i32 noundef %24, i32 noundef %31, i32 noundef 0)
  %68 = tail call noundef i32 @_ZN9dtNavMesh10removeTileEjPPhPi(ptr noundef nonnull align 8 dereferenceable(100) %66, i32 noundef %67, ptr noundef null, ptr noundef null)
  %.not32 = icmp eq ptr %65, null
  br i1 %.not32, label %75, label %69

69:                                               ; preds = %_ZN9rcContext8resetLogEv.exit
  %70 = load ptr, ptr %7, align 8
  %71 = load i32, ptr %3, align 4
  %72 = tail call noundef i32 @_ZN9dtNavMesh7addTileEPhiijPj(ptr noundef nonnull align 8 dereferenceable(100) %70, ptr noundef nonnull %65, i32 noundef %71, i32 noundef 1, i32 noundef 0, ptr noundef null)
  %73 = icmp slt i32 %72, 0
  br i1 %73, label %74, label %75

74:                                               ; preds = %69
  tail call void @_Z6dtFreePv(ptr noundef nonnull %65)
  br label %75

75:                                               ; preds = %69, %74, %_ZN9rcContext8resetLogEv.exit
  %76 = load ptr, ptr %56, align 8
  tail call void (ptr, ptr, ...) @_ZN12BuildContext7dumpLogEPKcz(ptr noundef nonnull align 8 dereferenceable(16472) %76, ptr noundef nonnull @.str.44, i32 noundef %24, i32 noundef %31)
  br label %77

77:                                               ; preds = %6, %2, %75
  ret void
}